target datalayout = "e-m:e-p270:32:32-p271:32:32-p272:64:64-i64:64-i128:128-f80:128-n8:16:32:64-S128"
target triple = "x86_64-pc-linux-gnu"

%struct.CFF_Builder_FuncsRec_ = type { ptr, ptr, ptr, ptr, ptr, ptr, ptr, ptr }
%struct.FT_BBox_ = type { i64, i64, i64, i64 }
%struct.FT_Vector_ = type { i64, i64 }
%struct.CFF_Builder_ = type { ptr, ptr, ptr, ptr, ptr, ptr, i64, i64, %struct.FT_Vector_, %struct.FT_Vector_, %struct.FT_BBox_, i8, i8, i8, i8, ptr, ptr, %struct.CFF_Builder_FuncsRec_ }
%struct.CFF_GlyphSlotRec_ = type { %struct.FT_GlyphSlotRec_, i8, i8, i64, i64 }
%struct.FT_GlyphSlotRec_ = type { ptr, ptr, ptr, i32, %struct.FT_Generic_, %struct.FT_Glyph_Metrics_, i64, i64, %struct.FT_Vector_, i32, %struct.FT_Bitmap_, i32, i32, %struct.FT_Outline_, i32, ptr, ptr, i64, i64, i64, ptr, ptr }
%struct.FT_Generic_ = type { ptr, ptr }
%struct.FT_Glyph_Metrics_ = type { i64, i64, i64, i64, i64, i64, i64, i64 }
%struct.FT_Bitmap_ = type { i32, i32, i32, ptr, i16, i8, i8, ptr }
%struct.FT_Outline_ = type { i16, i16, ptr, ptr, ptr, i32 }
%struct.FT_FaceRec_ = type { i64, i64, i64, i64, i64, ptr, ptr, i32, ptr, i32, ptr, %struct.FT_Generic_, %struct.FT_BBox_, i16, i16, i16, i16, i16, i16, i16, i16, ptr, ptr, ptr, ptr, ptr, ptr, %struct.FT_ListRec_, %struct.FT_Generic_, ptr, ptr }
%struct.FT_ListRec_ = type { ptr, ptr }
%struct.FT_Slot_InternalRec_ = type { ptr, i32, i8, %struct.FT_Matrix_, %struct.FT_Vector_, ptr, i32 }
%struct.FT_Matrix_ = type { i64, i64, i64, i64 }
%struct.FT_GlyphLoaderRec_ = type { ptr, i32, i32, i32, i8, %struct.FT_GlyphLoadRec_, %struct.FT_GlyphLoadRec_, ptr }
%struct.FT_GlyphLoadRec_ = type { %struct.FT_Outline_, ptr, ptr, i32, ptr }
%struct.FT_SizeRec_ = type { ptr, %struct.FT_Generic_, %struct.FT_Size_Metrics_, ptr }
%struct.FT_Size_Metrics_ = type { i16, i16, i64, i64, i64, i64, i64, i64 }
%struct.FT_Size_InternalRec_ = type { ptr, i32, %struct.FT_Size_Metrics_ }
%struct.TT_FaceRec_ = type { %struct.FT_FaceRec_, %struct.TTC_HeaderRec_, i64, i16, ptr, %struct.TT_Header_, %struct.TT_HoriHeader_, %struct.TT_MaxProfile_, i8, %struct.TT_VertHeader_, i16, %struct.TT_NameTableRec_, %struct.TT_OS2_, %struct.TT_Postscript_, ptr, i64, ptr, ptr, ptr, ptr, ptr, ptr, ptr, ptr, ptr, ptr, ptr, ptr, %struct.TT_Gasp_, %struct.TT_PCLT_, i64, ptr, %struct.TT_Post_NamesRec_, %struct.FT_Palette_Data_, i16, ptr, i8, %struct.FT_Color_, i64, ptr, i64, ptr, i64, ptr, ptr, %struct.FT_Generic_, ptr, i64, i64, i8, i8, ptr, i32, ptr, i32, i32, ptr, i64, i64, i64, ptr, ptr, i64, i32, i64, ptr, ptr, i64, i32, i32, ptr, ptr, i64, i32, i32, i32, %struct.TT_BDFRec_, i64, i64, i64, i64, ptr, ptr, ptr }
%struct.TTC_HeaderRec_ = type { i64, i64, i64, ptr }
%struct.TT_Header_ = type { i64, i64, i64, i64, i16, i16, [2 x i64], [2 x i64], i16, i16, i16, i16, i16, i16, i16, i16, i16 }
%struct.TT_HoriHeader_ = type { i64, i16, i16, i16, i16, i16, i16, i16, i16, i16, i16, [4 x i16], i16, i16, ptr, ptr }
%struct.TT_MaxProfile_ = type { i64, i16, i16, i16, i16, i16, i16, i16, i16, i16, i16, i16, i16, i16, i16 }
%struct.TT_VertHeader_ = type { i64, i16, i16, i16, i16, i16, i16, i16, i16, i16, i16, [4 x i16], i16, i16, ptr, ptr }
%struct.TT_NameTableRec_ = type { i16, i32, i32, ptr, i32, ptr, ptr }
%struct.TT_OS2_ = type { i16, i16, i16, i16, i16, i16, i16, i16, i16, i16, i16, i16, i16, i16, i16, i16, [10 x i8], i64, i64, i64, i64, [4 x i8], i16, i16, i16, i16, i16, i16, i16, i16, i64, i64, i16, i16, i16, i16, i16, i16, i16 }
%struct.TT_Postscript_ = type { i64, i64, i16, i16, i64, i64, i64, i64, i64 }
%struct.TT_Gasp_ = type { i16, i16, ptr }
%struct.TT_PCLT_ = type { i64, i64, i16, i16, i16, i16, i16, i16, [16 x i8], [8 x i8], [6 x i8], i8, i8, i8, i8 }
%struct.TT_Post_NamesRec_ = type { i8, i16, i16, ptr, ptr }
%struct.FT_Palette_Data_ = type { i16, ptr, ptr, i16, ptr }
%struct.FT_Color_ = type { i8, i8, i8, i8 }
%struct.TT_BDFRec_ = type { ptr, ptr, ptr, i64, i32, i8 }
%struct.CFF_InternalRec_ = type { ptr, [256 x ptr] }

@cff_builder_funcs = hidden constant %struct.CFF_Builder_FuncsRec_ { ptr @cff_builder_init, ptr @cff_builder_done, ptr @cff_check_points, ptr @cff_builder_add_point, ptr @cff_builder_add_point1, ptr @cff_builder_add_contour, ptr @cff_builder_start_point, ptr @cff_builder_close_contour }, align 8

; Function Attrs: nounwind uwtable
define internal void @cff_builder_init(ptr noundef %0, ptr noundef %1, ptr noundef %2, ptr noundef %3, i8 noundef zeroext %4) #0 {
  %6 = alloca ptr, align 8
  %7 = alloca ptr, align 8
  %8 = alloca ptr, align 8
  %9 = alloca ptr, align 8
  %10 = alloca i8, align 1
  %11 = alloca ptr, align 8
  %12 = alloca ptr, align 8
  %13 = alloca ptr, align 8
  store ptr %0, ptr %6, align 8
  store ptr %1, ptr %7, align 8
  store ptr %2, ptr %8, align 8
  store ptr %3, ptr %9, align 8
  store i8 %4, ptr %10, align 1
  %14 = load ptr, ptr %6, align 8
  %15 = getelementptr inbounds %struct.CFF_Builder_, ptr %14, i32 0, i32 11
  store i8 0, ptr %15, align 8
  %16 = load ptr, ptr %6, align 8
  %17 = getelementptr inbounds %struct.CFF_Builder_, ptr %16, i32 0, i32 12
  store i8 1, ptr %17, align 1
  %18 = load ptr, ptr %7, align 8
  %19 = load ptr, ptr %6, align 8
  %20 = getelementptr inbounds %struct.CFF_Builder_, ptr %19, i32 0, i32 1
  store ptr %18, ptr %20, align 8
  %21 = load ptr, ptr %9, align 8
  %22 = load ptr, ptr %6, align 8
  %23 = getelementptr inbounds %struct.CFF_Builder_, ptr %22, i32 0, i32 2
  store ptr %21, ptr %23, align 8
  %24 = load ptr, ptr %7, align 8
  %25 = getelementptr inbounds %struct.TT_FaceRec_, ptr %24, i32 0, i32 0
  %26 = getelementptr inbounds %struct.FT_FaceRec_, ptr %25, i32 0, i32 25
  %27 = load ptr, ptr %26, align 8
  %28 = load ptr, ptr %6, align 8
  %29 = getelementptr inbounds %struct.CFF_Builder_, ptr %28, i32 0, i32 0
  store ptr %27, ptr %29, align 8
  %30 = load ptr, ptr %9, align 8
  %31 = icmp ne ptr %30, null
  br i1 %31, label %32, label %88

32:                                               ; preds = %5
  %33 = load ptr, ptr %9, align 8
  %34 = getelementptr inbounds %struct.CFF_GlyphSlotRec_, ptr %33, i32 0, i32 0
  %35 = getelementptr inbounds %struct.FT_GlyphSlotRec_, ptr %34, i32 0, i32 21
  %36 = load ptr, ptr %35, align 8
  %37 = getelementptr inbounds %struct.FT_Slot_InternalRec_, ptr %36, i32 0, i32 0
  %38 = load ptr, ptr %37, align 8
  store ptr %38, ptr %11, align 8
  %39 = load ptr, ptr %11, align 8
  %40 = load ptr, ptr %6, align 8
  %41 = getelementptr inbounds %struct.CFF_Builder_, ptr %40, i32 0, i32 3
  store ptr %39, ptr %41, align 8
  %42 = load ptr, ptr %11, align 8
  %43 = getelementptr inbounds %struct.FT_GlyphLoaderRec_, ptr %42, i32 0, i32 5
  %44 = getelementptr inbounds %struct.FT_GlyphLoadRec_, ptr %43, i32 0, i32 0
  %45 = load ptr, ptr %6, align 8
  %46 = getelementptr inbounds %struct.CFF_Builder_, ptr %45, i32 0, i32 4
  store ptr %44, ptr %46, align 8
  %47 = load ptr, ptr %11, align 8
  %48 = getelementptr inbounds %struct.FT_GlyphLoaderRec_, ptr %47, i32 0, i32 6
  %49 = getelementptr inbounds %struct.FT_GlyphLoadRec_, ptr %48, i32 0, i32 0
  %50 = load ptr, ptr %6, align 8
  %51 = getelementptr inbounds %struct.CFF_Builder_, ptr %50, i32 0, i32 5
  store ptr %49, ptr %51, align 8
  %52 = load ptr, ptr %11, align 8
  call void @FT_GlyphLoader_Rewind(ptr noundef %52)
  %53 = load ptr, ptr %6, align 8
  %54 = getelementptr inbounds %struct.CFF_Builder_, ptr %53, i32 0, i32 16
  store ptr null, ptr %54, align 8
  %55 = load ptr, ptr %6, align 8
  %56 = getelementptr inbounds %struct.CFF_Builder_, ptr %55, i32 0, i32 15
  store ptr null, ptr %56, align 8
  %57 = load i8, ptr %10, align 1
  %58 = zext i8 %57 to i32
  %59 = icmp ne i32 %58, 0
  br i1 %59, label %60, label %87

60:                                               ; preds = %32
  %61 = load ptr, ptr %8, align 8
  %62 = icmp ne ptr %61, null
  br i1 %62, label %63, label %87

63:                                               ; preds = %60
  %64 = load ptr, ptr %8, align 8
  store ptr %64, ptr %12, align 8
  %65 = load ptr, ptr %12, align 8
  %66 = getelementptr inbounds %struct.FT_SizeRec_, ptr %65, i32 0, i32 3
  %67 = load ptr, ptr %66, align 8
  %68 = getelementptr inbounds %struct.FT_Size_InternalRec_, ptr %67, i32 0, i32 0
  %69 = load ptr, ptr %68, align 8
  store ptr %69, ptr %13, align 8
  %70 = load ptr, ptr %13, align 8
  %71 = icmp ne ptr %70, null
  br i1 %71, label %72, label %86

72:                                               ; preds = %63
  %73 = load ptr, ptr %13, align 8
  %74 = getelementptr inbounds %struct.CFF_InternalRec_, ptr %73, i32 0, i32 0
  %75 = load ptr, ptr %74, align 8
  %76 = load ptr, ptr %6, align 8
  %77 = getelementptr inbounds %struct.CFF_Builder_, ptr %76, i32 0, i32 16
  store ptr %75, ptr %77, align 8
  %78 = load ptr, ptr %9, align 8
  %79 = getelementptr inbounds %struct.CFF_GlyphSlotRec_, ptr %78, i32 0, i32 0
  %80 = getelementptr inbounds %struct.FT_GlyphSlotRec_, ptr %79, i32 0, i32 21
  %81 = load ptr, ptr %80, align 8
  %82 = getelementptr inbounds %struct.FT_Slot_InternalRec_, ptr %81, i32 0, i32 5
  %83 = load ptr, ptr %82, align 8
  %84 = load ptr, ptr %6, align 8
  %85 = getelementptr inbounds %struct.CFF_Builder_, ptr %84, i32 0, i32 15
  store ptr %83, ptr %85, align 8
  br label %86

86:                                               ; preds = %72, %63
  br label %87

87:                                               ; preds = %86, %60, %32
  br label %88

88:                                               ; preds = %87, %5
  %89 = load ptr, ptr %6, align 8
  %90 = getelementptr inbounds %struct.CFF_Builder_, ptr %89, i32 0, i32 6
  store i64 0, ptr %90, align 8
  %91 = load ptr, ptr %6, align 8
  %92 = getelementptr inbounds %struct.CFF_Builder_, ptr %91, i32 0, i32 7
  store i64 0, ptr %92, align 8
  %93 = load ptr, ptr %6, align 8
  %94 = getelementptr inbounds %struct.CFF_Builder_, ptr %93, i32 0, i32 8
  %95 = getelementptr inbounds %struct.FT_Vector_, ptr %94, i32 0, i32 0
  store i64 0, ptr %95, align 8
  %96 = load ptr, ptr %6, align 8
  %97 = getelementptr inbounds %struct.CFF_Builder_, ptr %96, i32 0, i32 8
  %98 = getelementptr inbounds %struct.FT_Vector_, ptr %97, i32 0, i32 1
  store i64 0, ptr %98, align 8
  %99 = load ptr, ptr %6, align 8
  %100 = getelementptr inbounds %struct.CFF_Builder_, ptr %99, i32 0, i32 9
  %101 = getelementptr inbounds %struct.FT_Vector_, ptr %100, i32 0, i32 0
  store i64 0, ptr %101, align 8
  %102 = load ptr, ptr %6, align 8
  %103 = getelementptr inbounds %struct.CFF_Builder_, ptr %102, i32 0, i32 9
  %104 = getelementptr inbounds %struct.FT_Vector_, ptr %103, i32 0, i32 1
  store i64 0, ptr %104, align 8
  %105 = load ptr, ptr %6, align 8
  %106 = getelementptr inbounds %struct.CFF_Builder_, ptr %105, i32 0, i32 17
  call void @llvm.memcpy.p0.p0.i64(ptr align 8 %106, ptr align 8 @cff_builder_funcs, i64 64, i1 false)
  ret void
}