; Function Attrs: nounwind uwtable
define internal void @cff_builder_init(ptr noundef writeonly captures(none) initializes((0, 24), (48, 96), (128, 130), (152, 216)) %0, ptr noundef %1, ptr noundef readonly %2, ptr noundef %3, i8 noundef zeroext %4) #0 {
  %6 = getelementptr inbounds nuw i8, ptr %0, i64 128
  store i8 0, ptr %6, align 8
  %7 = getelementptr inbounds nuw i8, ptr %0, i64 129
  store i8 1, ptr %7, align 1
  %8 = getelementptr inbounds nuw i8, ptr %0, i64 8
  store ptr %1, ptr %8, align 8
  %9 = getelementptr inbounds nuw i8, ptr %0, i64 16
  store ptr %3, ptr %9, align 8
  %10 = getelementptr inbounds nuw i8, ptr %1, i64 184
  %11 = load ptr, ptr %10, align 8
  store ptr %11, ptr %0, align 8
  %.not = icmp eq ptr %3, null
  br i1 %.not, label %34, label %12

12:                                               ; preds = %5
  %13 = getelementptr inbounds nuw i8, ptr %3, i64 296
  %14 = load ptr, ptr %13, align 8
  %15 = load ptr, ptr %14, align 8
  %16 = getelementptr inbounds nuw i8, ptr %0, i64 24
  store ptr %15, ptr %16, align 8
  %17 = getelementptr inbounds nuw i8, ptr %15, i64 24
  %18 = getelementptr inbounds nuw i8, ptr %0, i64 32
  store ptr %17, ptr %18, align 8
  %19 = getelementptr inbounds nuw i8, ptr %15, i64 96
  %20 = getelementptr inbounds nuw i8, ptr %0, i64 40
  store ptr %19, ptr %20, align 8
  tail call void @FT_GlyphLoader_Rewind(ptr noundef %15) #20
  %21 = getelementptr inbounds nuw i8, ptr %0, i64 144
  %22 = getelementptr inbounds nuw i8, ptr %0, i64 136
  %23 = icmp ne i8 %4, 0
  %24 = icmp ne ptr %2, null
  %or.cond = and i1 %24, %23
  tail call void @llvm.memset.p0.i64(ptr noundef nonnull align 8 dereferenceable(16) %22, i8 0, i64 16, i1 false)
  br i1 %or.cond, label %25, label %34

25:                                               ; preds = %12
  %26 = getelementptr inbounds nuw i8, ptr %2, i64 80
  %27 = load ptr, ptr %26, align 8
  %28 = load ptr, ptr %27, align 8
  %.not37 = icmp eq ptr %28, null
  br i1 %.not37, label %34, label %29

29:                                               ; preds = %25
  %30 = load ptr, ptr %28, align 8
  store ptr %30, ptr %21, align 8
  %31 = load ptr, ptr %13, align 8
  %32 = getelementptr inbounds nuw i8, ptr %31, i64 64
  %33 = load ptr, ptr %32, align 8
  store ptr %33, ptr %22, align 8
  br label %34

34:                                               ; preds = %12, %29, %25, %5
  %35 = getelementptr inbounds nuw i8, ptr %0, i64 48
  %36 = getelementptr inbounds nuw i8, ptr %0, i64 152
  tail call void @llvm.memset.p0.i64(ptr noundef nonnull align 8 dereferenceable(48) %35, i8 0, i64 48, i1 false)
  tail call void @llvm.memcpy.p0.p0.i64(ptr noundef nonnull align 8 dereferenceable(64) %36, ptr noundef nonnull align 8 dereferenceable(64) @cff_builder_funcs, i64 64, i1 false)
  ret void
}